target datalayout = "e-m:e-p270:32:32-p271:32:32-p272:64:64-i64:64-i128:128-f80:128-n8:16:32:64-S128"
target triple = "x86_64-pc-linux-gnu"

%struct.gf_s = type { [8 x i64] }

@MODULUS = internal constant [1 x %struct.gf_s] [%struct.gf_s { [8 x i64] [i64 72057594037927935, i64 72057594037927935, i64 72057594037927935, i64 72057594037927935, i64 72057594037927934, i64 72057594037927935, i64 72057594037927935, i64 72057594037927935] }], align 16

; Function Attrs: inlinehint nounwind uwtable
define internal i64 @constant_time_msb_64(i64 noundef %0) #3 {
  %2 = alloca i64, align 8
  store i64 %0, ptr %2, align 8, !tbaa !14
  %3 = load i64, ptr %2, align 8, !tbaa !14
  %4 = lshr i64 %3, 63
  %5 = sub i64 0, %4
  ret i64 %5
}

; Function Attrs: inlinehint nounwind uwtable
define internal i64 @constant_time_is_zero_64(i64 noundef %0) #3 {
  %2 = alloca i64, align 8
  store i64 %0, ptr %2, align 8, !tbaa !14
  %3 = load i64, ptr %2, align 8, !tbaa !14
  %4 = xor i64 %3, -1
  %5 = load i64, ptr %2, align 8, !tbaa !14
  %6 = sub i64 %5, 1
  %7 = and i64 %4, %6
  %8 = call i64 @constant_time_msb_64(i64 noundef %7)
  ret i64 %8
}

; Function Attrs: nounwind uwtable
define i64 @gf_deserialize(ptr noundef %0, ptr noundef %1, i32 noundef %2, i8 noundef zeroext %3) #0 {
  %5 = alloca ptr, align 8
  %6 = alloca ptr, align 8
  %7 = alloca i32, align 4
  %8 = alloca i8, align 1
  %9 = alloca i32, align 4
  %10 = alloca i32, align 4
  %11 = alloca i128, align 16
  %12 = alloca i128, align 16
  %13 = alloca i32, align 4
  %14 = alloca i32, align 4
  %15 = alloca i64, align 8
  %16 = alloca i8, align 1
  store ptr %0, ptr %5, align 8, !tbaa !8
  store ptr %1, ptr %6, align 8, !tbaa !3
  store i32 %2, ptr %7, align 4, !tbaa !10
  store i8 %3, ptr %8, align 1, !tbaa !16
  call void @llvm.lifetime.start.p0(i64 4, ptr %9) #6
  store i32 0, ptr %9, align 4, !tbaa !10
  call void @llvm.lifetime.start.p0(i64 4, ptr %10) #6
  store i32 0, ptr %10, align 4, !tbaa !10
  call void @llvm.lifetime.start.p0(i64 16, ptr %11) #6
  store i128 0, ptr %11, align 16, !tbaa !12
  call void @llvm.lifetime.start.p0(i64 16, ptr %12) #6
  store i128 0, ptr %12, align 16, !tbaa !12
  call void @llvm.lifetime.start.p0(i64 4, ptr %13) #6
  %17 = load i32, ptr %7, align 4, !tbaa !10
  %18 = icmp ne i32 %17, 0
  %19 = select i1 %18, i32 56, i32 56
  store i32 %19, ptr %13, align 4, !tbaa !10
  call void @llvm.lifetime.start.p0(i64 4, ptr %14) #6
  call void @llvm.lifetime.start.p0(i64 8, ptr %15) #6
  store i32 0, ptr %14, align 4, !tbaa !10
  br label %20

20:                                               ; preds = %101, %4
  %21 = load i32, ptr %14, align 4, !tbaa !10
  %22 = zext i32 %21 to i64
  %23 = icmp ult i64 %22, 8
  br i1 %23, label %24, label %104

24:                                               ; preds = %20
  br label %25

25:                                               ; preds = %52, %24
  %26 = load i32, ptr %10, align 4, !tbaa !10
  %27 = icmp ult i32 %26, 56
  br i1 %27, label %28, label %32

28:                                               ; preds = %25
  %29 = load i32, ptr %9, align 4, !tbaa !10
  %30 = load i32, ptr %13, align 4, !tbaa !10
  %31 = icmp ult i32 %29, %30
  br label %32

32:                                               ; preds = %28, %25
  %33 = phi i1 [ false, %25 ], [ %31, %28 ]
  br i1 %33, label %34, label %64

34:                                               ; preds = %32
  call void @llvm.lifetime.start.p0(i64 1, ptr %16) #6
  %35 = load ptr, ptr %6, align 8, !tbaa !3
  %36 = load i32, ptr %9, align 4, !tbaa !10
  %37 = zext i32 %36 to i64
  %38 = getelementptr inbounds nuw i8, ptr %35, i64 %37
  %39 = load i8, ptr %38, align 1, !tbaa !16
  store i8 %39, ptr %16, align 1, !tbaa !16
  %40 = load i32, ptr %9, align 4, !tbaa !10
  %41 = load i32, ptr %13, align 4, !tbaa !10
  %42 = sub i32 %41, 1
  %43 = icmp eq i32 %40, %42
  br i1 %43, label %44, label %52

44:                                               ; preds = %34
  %45 = load i8, ptr %8, align 1, !tbaa !16
  %46 = zext i8 %45 to i32
  %47 = xor i32 %46, -1
  %48 = load i8, ptr %16, align 1, !tbaa !16
  %49 = zext i8 %48 to i32
  %50 = and i32 %49, %47
  %51 = trunc i32 %50 to i8
  store i8 %51, ptr %16, align 1, !tbaa !16
  br label %52

52:                                               ; preds = %44, %34
  %53 = load i8, ptr %16, align 1, !tbaa !16
  %54 = zext i8 %53 to i128
  %55 = load i32, ptr %10, align 4, !tbaa !10
  %56 = zext i32 %55 to i128
  %57 = shl i128 %54, %56
  %58 = load i128, ptr %11, align 16, !tbaa !12
  %59 = or i128 %58, %57
  store i128 %59, ptr %11, align 16, !tbaa !12
  %60 = load i32, ptr %10, align 4, !tbaa !10
  %61 = add i32 %60, 8
  store i32 %61, ptr %10, align 4, !tbaa !10
  %62 = load i32, ptr %9, align 4, !tbaa !10
  %63 = add i32 %62, 1
  store i32 %63, ptr %9, align 4, !tbaa !10
  call void @llvm.lifetime.end.p0(i64 1, ptr %16) #6
  br label %25, !llvm.loop !22

64:                                               ; preds = %32
  %65 = load i32, ptr %14, align 4, !tbaa !10
  %66 = zext i32 %65 to i64
  %67 = icmp ult i64 %66, 7
  br i1 %67, label %68, label %71

68:                                               ; preds = %64
  %69 = load i128, ptr %11, align 16, !tbaa !12
  %70 = and i128 %69, 72057594037927935
  br label %73

71:                                               ; preds = %64
  %72 = load i128, ptr %11, align 16, !tbaa !12
  br label %73

73:                                               ; preds = %71, %68
  %74 = phi i128 [ %70, %68 ], [ %72, %71 ]
  %75 = trunc i128 %74 to i64
  %76 = load ptr, ptr %5, align 8, !tbaa !8
  %77 = getelementptr inbounds nuw %struct.gf_s, ptr %76, i32 0, i32 0
  %78 = load i32, ptr %14, align 4, !tbaa !10
  %79 = zext i32 %78 to i64
  %80 = getelementptr inbounds nuw [8 x i64], ptr %77, i64 0, i64 %79
  store i64 %75, ptr %80, align 8, !tbaa !14
  %81 = load i32, ptr %10, align 4, !tbaa !10
  %82 = sub i32 %81, 56
  store i32 %82, ptr %10, align 4, !tbaa !10
  %83 = load i128, ptr %11, align 16, !tbaa !12
  %84 = lshr i128 %83, 56
  store i128 %84, ptr %11, align 16, !tbaa !12
  %85 = load i128, ptr %12, align 16, !tbaa !12
  %86 = load ptr, ptr %5, align 8, !tbaa !8
  %87 = getelementptr inbounds nuw %struct.gf_s, ptr %86, i32 0, i32 0
  %88 = load i32, ptr %14, align 4, !tbaa !10
  %89 = zext i32 %88 to i64
  %90 = getelementptr inbounds nuw [8 x i64], ptr %87, i64 0, i64 %89
  %91 = load i64, ptr %90, align 8, !tbaa !14
  %92 = zext i64 %91 to i128
  %93 = add nsw i128 %85, %92
  %94 = load i32, ptr %14, align 4, !tbaa !10
  %95 = zext i32 %94 to i64
  %96 = getelementptr inbounds nuw [8 x i64], ptr @MODULUS, i64 0, i64 %95
  %97 = load i64, ptr %96, align 8, !tbaa !14
  %98 = zext i64 %97 to i128
  %99 = sub nsw i128 %93, %98
  %100 = ashr i128 %99, 64
  store i128 %100, ptr %12, align 16, !tbaa !12
  br label %101

101:                                              ; preds = %73
  %102 = load i32, ptr %14, align 4, !tbaa !10
  %103 = add i32 %102, 1
  store i32 %103, ptr %14, align 4, !tbaa !10
  br label %20, !llvm.loop !23

104:                                              ; preds = %20
  %105 = load i32, ptr %7, align 4, !tbaa !10
  %106 = icmp ne i32 %105, 0
  br i1 %106, label %107, label %108

107:                                              ; preds = %104
  br label %112

108:                                              ; preds = %104
  %109 = load ptr, ptr %5, align 8, !tbaa !8
  %110 = call i64 @gf_hibit(ptr noundef %109)
  %111 = xor i64 %110, -1
  br label %112

112:                                              ; preds = %108, %107
  %113 = phi i64 [ -1, %107 ], [ %111, %108 ]
  store i64 %113, ptr %15, align 8, !tbaa !14
  %114 = load i64, ptr %15, align 8, !tbaa !14
  %115 = load i128, ptr %11, align 16, !tbaa !12
  %116 = trunc i128 %115 to i64
  %117 = call i64 @constant_time_is_zero_64(i64 noundef %116)
  %118 = and i64 %114, %117
  %119 = load i128, ptr %12, align 16, !tbaa !12
  %120 = trunc i128 %119 to i64
  %121 = call i64 @constant_time_is_zero_64(i64 noundef %120)
  %122 = xor i64 %121, -1
  %123 = and i64 %118, %122
  call void @llvm.lifetime.end.p0(i64 8, ptr %15) #6
  call void @llvm.lifetime.end.p0(i64 4, ptr %14) #6
  call void @llvm.lifetime.end.p0(i64 4, ptr %13) #6
  call void @llvm.lifetime.end.p0(i64 16, ptr %12) #6
  call void @llvm.lifetime.end.p0(i64 16, ptr %11) #6
  call void @llvm.lifetime.end.p0(i64 4, ptr %10) #6
  call void @llvm.lifetime.end.p0(i64 4, ptr %9) #6
  ret i64 %123
}