; Function Attrs: nofree norecurse nosync nounwind memory(argmem: readwrite) uwtable
define range(i64 -1, 1) i64 @gf_deserialize(ptr noundef captures(none) %0, ptr noundef readonly captures(none) %1, i32 noundef %2, i8 noundef zeroext %3) local_unnamed_addr #0 {
  %5 = xor i8 %3, -1
  br label %.preheader

.preheader:                                       ; preds = %4, %._crit_edge
  %indvars.iv57 = phi i64 [ 0, %4 ], [ %indvars.iv.next58, %._crit_edge ]
  %.03251 = phi i32 [ 0, %4 ], [ %.1.lcssa, %._crit_edge ]
  %.03449 = phi i32 [ 0, %4 ], [ %27, %._crit_edge ]
  %.03648 = phi i128 [ 0, %4 ], [ %35, %._crit_edge ]
  %.03747 = phi i128 [ 0, %4 ], [ %28, %._crit_edge ]
  %6 = icmp ult i32 %.03449, 56
  %7 = icmp ult i32 %.03251, 56
  %8 = select i1 %6, i1 %7, i1 false
  br i1 %8, label %.lr.ph.preheader, label %._crit_edge

.lr.ph.preheader:                                 ; preds = %.preheader
  %9 = zext nneg i32 %.03251 to i64
  br label %.lr.ph

.lr.ph:                                           ; preds = %.lr.ph.preheader, %.lr.ph
  %indvars.iv = phi i64 [ %9, %.lr.ph.preheader ], [ %indvars.iv.next, %.lr.ph ]
  %.13543 = phi i32 [ %.03449, %.lr.ph.preheader ], [ %18, %.lr.ph ]
  %.13842 = phi i128 [ %.03747, %.lr.ph.preheader ], [ %17, %.lr.ph ]
  %10 = getelementptr inbounds nuw i8, ptr %1, i64 %indvars.iv
  %11 = load i8, ptr %10, align 1, !tbaa !4
  %12 = icmp eq i64 %indvars.iv, 55
  %13 = select i1 %12, i8 %5, i8 -1
  %.0 = and i8 %11, %13
  %14 = zext i8 %.0 to i128
  %15 = zext nneg i32 %.13543 to i128
  %16 = shl nuw nsw i128 %14, %15
  %17 = or i128 %16, %.13842
  %18 = add nuw nsw i32 %.13543, 8
  %indvars.iv.next = add nuw nsw i64 %indvars.iv, 1
  %19 = icmp samesign ult i32 %.13543, 48
  %20 = icmp samesign ult i64 %indvars.iv, 55
  %21 = and i1 %19, %20
  br i1 %21, label %.lr.ph, label %._crit_edge.loopexit, !llvm.loop !15

._crit_edge.loopexit:                             ; preds = %.lr.ph
  %22 = trunc nuw nsw i64 %indvars.iv.next to i32
  br label %._crit_edge

._crit_edge:                                      ; preds = %._crit_edge.loopexit, %.preheader
  %.138.lcssa = phi i128 [ %.03747, %.preheader ], [ %17, %._crit_edge.loopexit ]
  %.135.lcssa = phi i32 [ %.03449, %.preheader ], [ %18, %._crit_edge.loopexit ]
  %.1.lcssa = phi i32 [ %.03251, %.preheader ], [ %22, %._crit_edge.loopexit ]
  %.not39 = icmp eq i64 %indvars.iv57, 7
  %23 = and i128 %.138.lcssa, 72057594037927935
  %24 = select i1 %.not39, i128 %.138.lcssa, i128 %23
  %25 = trunc i128 %24 to i64
  %26 = getelementptr inbounds nuw [8 x i64], ptr %0, i64 0, i64 %indvars.iv57
  store i64 %25, ptr %26, align 8, !tbaa !7
  %27 = add i32 %.135.lcssa, -56
  %28 = lshr i128 %.138.lcssa, 56
  %29 = and i128 %24, 18446744073709551615
  %30 = add nsw i128 %29, %.03648
  %31 = getelementptr inbounds nuw [8 x i64], ptr @MODULUS, i64 0, i64 %indvars.iv57
  %32 = load i64, ptr %31, align 8, !tbaa !7
  %33 = zext i64 %32 to i128
  %34 = sub nsw i128 %30, %33
  %35 = ashr i128 %34, 64
  %indvars.iv.next58 = add nuw nsw i64 %indvars.iv57, 1
  %exitcond.not = icmp eq i64 %indvars.iv.next58, 8
  br i1 %exitcond.not, label %36, label %.preheader, !llvm.loop !16

36:                                               ; preds = %._crit_edge
  %.not = icmp eq i32 %2, 0
  br i1 %.not, label %37, label %40

37:                                               ; preds = %36
  %38 = tail call i64 @gf_hibit(ptr noundef nonnull %0)
  %39 = xor i64 %38, -1
  br label %40

40:                                               ; preds = %36, %37
  %41 = phi i64 [ %39, %37 ], [ -1, %36 ]
  %42 = trunc i128 %28 to i64
  %43 = icmp eq i64 %42, 0
  %44 = select i1 %43, i64 %41, i64 0
  %45 = trunc nsw i128 %35 to i64
  %.not41 = icmp eq i64 %45, 0
  %46 = select i1 %.not41, i64 0, i64 %44
  ret i64 %46
}